target datalayout = "e-m:e-p270:32:32-p271:32:32-p272:64:64-i64:64-i128:128-f80:128-n8:16:32:64-S128"
target triple = "x86_64-pc-linux-gnu"

%struct._lv_font_manager_recycle_t = type { %struct.lv_ll_t, i32 }
%struct.lv_ll_t = type { i32, ptr, ptr }
%struct.lv_font_recycle_t = type { %struct.lv_freetype_info_t, [32 x i8], ptr }
%struct.lv_freetype_info_t = type { ptr, i32, i32, i32 }

; Function Attrs: nounwind uwtable
define ptr @lv_font_manager_recycle_get_reuse(ptr noundef %0, ptr noundef %1) #0 {
  %3 = alloca ptr, align 8
  %4 = alloca ptr, align 8
  %5 = alloca ptr, align 8
  %6 = alloca ptr, align 8
  %7 = alloca ptr, align 8
  %8 = alloca ptr, align 8
  %9 = alloca i32, align 4
  store ptr %0, ptr %4, align 8, !tbaa !7
  store ptr %1, ptr %5, align 8, !tbaa !7
  br label %10

10:                                               ; preds = %2
  %11 = load ptr, ptr %4, align 8, !tbaa !7
  %12 = icmp ne ptr %11, null
  br i1 %12, label %17, label %13

13:                                               ; preds = %10
  br label %14

14:                                               ; preds = %13
  br label %15

15:                                               ; preds = %14
  br label %16

16:                                               ; preds = %15, %16
  br label %16

17:                                               ; preds = %10
  br label %18

18:                                               ; preds = %17
  br label %19

19:                                               ; preds = %18
  %20 = load ptr, ptr %5, align 8, !tbaa !7
  %21 = icmp ne ptr %20, null
  br i1 %21, label %26, label %22

22:                                               ; preds = %19
  br label %23

23:                                               ; preds = %22
  br label %24

24:                                               ; preds = %23
  br label %25

25:                                               ; preds = %24, %25
  br label %25

26:                                               ; preds = %19
  br label %27

27:                                               ; preds = %26
  call void @llvm.lifetime.start.p0(i64 8, ptr %6) #5
  %28 = load ptr, ptr %4, align 8, !tbaa !7
  %29 = getelementptr inbounds nuw %struct._lv_font_manager_recycle_t, ptr %28, i32 0, i32 0
  store ptr %29, ptr %6, align 8, !tbaa !7
  br label %30

30:                                               ; preds = %27
  br label %31

31:                                               ; preds = %30
  br label %32

32:                                               ; preds = %31
  call void @llvm.lifetime.start.p0(i64 8, ptr %7) #5
  %33 = load ptr, ptr %6, align 8, !tbaa !7
  %34 = call ptr @lv_ll_get_head(ptr noundef %33)
  store ptr %34, ptr %7, align 8, !tbaa !7
  br label %35

35:                                               ; preds = %55, %32
  %36 = load ptr, ptr %7, align 8, !tbaa !7
  %37 = icmp ne ptr %36, null
  br i1 %37, label %38, label %59

38:                                               ; preds = %35
  %39 = load ptr, ptr %5, align 8, !tbaa !7
  %40 = load ptr, ptr %7, align 8, !tbaa !7
  %41 = getelementptr inbounds nuw %struct.lv_font_recycle_t, ptr %40, i32 0, i32 0
  %42 = call zeroext i1 @lv_freetype_info_is_equal(ptr noundef %39, ptr noundef %41)
  br i1 %42, label %43, label %54

43:                                               ; preds = %38
  call void @llvm.lifetime.start.p0(i64 8, ptr %8) #5
  %44 = load ptr, ptr %7, align 8, !tbaa !7
  %45 = getelementptr inbounds nuw %struct.lv_font_recycle_t, ptr %44, i32 0, i32 2
  %46 = load ptr, ptr %45, align 8, !tbaa !14
  store ptr %46, ptr %8, align 8, !tbaa !7
  br label %47

47:                                               ; preds = %43
  br label %48

48:                                               ; preds = %47
  br label %49

49:                                               ; preds = %48
  %50 = load ptr, ptr %6, align 8, !tbaa !7
  %51 = load ptr, ptr %7, align 8, !tbaa !7
  call void @lv_ll_remove(ptr noundef %50, ptr noundef %51)
  %52 = load ptr, ptr %7, align 8, !tbaa !7
  call void @lv_free(ptr noundef %52)
  %53 = load ptr, ptr %8, align 8, !tbaa !7
  store ptr %53, ptr %3, align 8
  store i32 1, ptr %9, align 4
  call void @llvm.lifetime.end.p0(i64 8, ptr %8) #5
  br label %63

54:                                               ; preds = %38
  br label %55

55:                                               ; preds = %54
  %56 = load ptr, ptr %6, align 8, !tbaa !7
  %57 = load ptr, ptr %7, align 8, !tbaa !7
  %58 = call ptr @lv_ll_get_next(ptr noundef %56, ptr noundef %57)
  store ptr %58, ptr %7, align 8, !tbaa !7
  br label %35, !llvm.loop !17

59:                                               ; preds = %35
  br label %60

60:                                               ; preds = %59
  br label %61

61:                                               ; preds = %60
  br label %62

62:                                               ; preds = %61
  store ptr null, ptr %3, align 8
  store i32 1, ptr %9, align 4
  br label %63

63:                                               ; preds = %62, %49
  call void @llvm.lifetime.end.p0(i64 8, ptr %7) #5
  call void @llvm.lifetime.end.p0(i64 8, ptr %6) #5
  %64 = load ptr, ptr %3, align 8
  ret ptr %64
}