; Function Attrs: nounwind uwtable
define ptr @lv_font_manager_recycle_get_reuse(ptr noundef %0, ptr noundef %1) local_unnamed_addr #0 {
  %.not = icmp eq ptr %0, null
  br i1 %.not, label %.preheader, label %3

.preheader:                                       ; preds = %2, %.preheader
  br label %.preheader

3:                                                ; preds = %2
  %.not18 = icmp eq ptr %1, null
  br i1 %.not18, label %.preheader20, label %4

.preheader20:                                     ; preds = %3, %.preheader20
  br label %.preheader20

4:                                                ; preds = %3
  %5 = tail call ptr @lv_ll_get_head(ptr noundef nonnull %0) #3
  %.not1922 = icmp eq ptr %5, null
  br i1 %.not1922, label %.loopexit, label %.lr.ph

.lr.ph:                                           ; preds = %4, %10
  %.01523 = phi ptr [ %11, %10 ], [ %5, %4 ]
  %6 = tail call zeroext i1 @lv_freetype_info_is_equal(ptr noundef nonnull %1, ptr noundef nonnull %.01523) #3
  br i1 %6, label %7, label %10

7:                                                ; preds = %.lr.ph
  %8 = getelementptr inbounds nuw i8, ptr %.01523, i64 56
  %9 = load ptr, ptr %8, align 8, !tbaa !10
  tail call void @lv_ll_remove(ptr noundef nonnull %0, ptr noundef nonnull %.01523) #3
  tail call void @lv_free(ptr noundef nonnull %.01523) #3
  br label %.loopexit

10:                                               ; preds = %.lr.ph
  %11 = tail call ptr @lv_ll_get_next(ptr noundef nonnull %0, ptr noundef nonnull %.01523) #3
  %.not19 = icmp eq ptr %11, null
  br i1 %.not19, label %.loopexit, label %.lr.ph, !llvm.loop !15

.loopexit:                                        ; preds = %10, %4, %7
  %.0 = phi ptr [ %9, %7 ], [ null, %4 ], [ null, %10 ]
  ret ptr %.0
}